target datalayout = "e-m:e-p270:32:32-p271:32:32-p272:64:64-i64:64-i128:128-f80:128-n8:16:32:64-S128"
target triple = "x86_64-unknown-linux-gnu"

%"class.facebook::hermes::tracing::SynthTrace::TraceValue" = type { i32, %union.anon }
%union.anon = type { double }
%"class.llvh::StringRef" = type { ptr, i64 }
%"class.std::__cxx11::basic_string" = type { %"struct.std::__cxx11::basic_string<char>::_Alloc_hider", i64, %union.anon.13 }
%"struct.std::__cxx11::basic_string<char>::_Alloc_hider" = type { ptr }
%union.anon.13 = type { i64, [8 x i8] }
%"struct.facebook::hermes::tracing::SynthTrace::Record" = type { ptr, %"class.std::chrono::duration" }
%"class.std::chrono::duration" = type { i64 }
%"struct.facebook::hermes::tracing::SynthTrace::CreatePropNameIDRecord" = type <{ %"struct.facebook::hermes::tracing::SynthTrace::Record", i64, %"class.std::__cxx11::basic_string", %"class.facebook::hermes::tracing::SynthTrace::TraceValue", i32, [4 x i8] }>

@.str.53 = private unnamed_addr constant [6 x i8] c"objID\00", align 1
@.str.59 = private unnamed_addr constant [9 x i8] c"encoding\00", align 1
@.str.60 = private unnamed_addr constant [6 x i8] c"chars\00", align 1
@.str.61 = private unnamed_addr constant [6 x i8] c"value\00", align 1

; Function Attrs: mustprogress uwtable
define linkonce_odr hidden void @_ZN6hermes11JSONEmitter12emitKeyValueIN4llvh9StringRefEEEvS3_RKT_(ptr noundef nonnull align 8 dereferenceable(72) %this, ptr %key.coerce0, i64 %key.coerce1, ptr noundef nonnull align 8 dereferenceable(16) %val) #1 comdat align 2 {
entry:
  %key = alloca %"class.llvh::StringRef", align 8
  %this.addr = alloca ptr, align 8
  %val.addr = alloca ptr, align 8
  %agg.tmp = alloca %"class.llvh::StringRef", align 8
  %agg.tmp2 = alloca %"class.llvh::StringRef", align 8
  %0 = getelementptr inbounds { ptr, i64 }, ptr %key, i32 0, i32 0
  store ptr %key.coerce0, ptr %0, align 8
  %1 = getelementptr inbounds { ptr, i64 }, ptr %key, i32 0, i32 1
  store i64 %key.coerce1, ptr %1, align 8
  store ptr %this, ptr %this.addr, align 8
  store ptr %val, ptr %val.addr, align 8
  %this1 = load ptr, ptr %this.addr, align 8
  call void @llvm.memcpy.p0.p0.i64(ptr align 8 %agg.tmp, ptr align 8 %key, i64 16, i1 false)
  %2 = getelementptr inbounds { ptr, i64 }, ptr %agg.tmp, i32 0, i32 0
  %3 = load ptr, ptr %2, align 8
  %4 = getelementptr inbounds { ptr, i64 }, ptr %agg.tmp, i32 0, i32 1
  %5 = load i64, ptr %4, align 8
  call void @_ZN6hermes11JSONEmitter7emitKeyEN4llvh9StringRefE(ptr noundef nonnull align 8 dereferenceable(72) %this1, ptr %3, i64 %5)
  %6 = load ptr, ptr %val.addr, align 8
  call void @llvm.memcpy.p0.p0.i64(ptr align 8 %agg.tmp2, ptr align 8 %6, i64 16, i1 false)
  %7 = getelementptr inbounds { ptr, i64 }, ptr %agg.tmp2, i32 0, i32 0
  %8 = load ptr, ptr %7, align 8
  %9 = getelementptr inbounds { ptr, i64 }, ptr %agg.tmp2, i32 0, i32 1
  %10 = load i64, ptr %9, align 8
  call void @_ZN6hermes11JSONEmitter9emitValueEN4llvh9StringRefE(ptr noundef nonnull align 8 dereferenceable(72) %this1, ptr %8, i64 %10)
  ret void
}

; Function Attrs: mustprogress uwtable
define linkonce_odr hidden void @_ZN6hermes11JSONEmitter12emitKeyValueINSt7__cxx1112basic_stringIcSt11char_traitsIcESaIcEEEEEvN4llvh9StringRefERKT_(ptr noundef nonnull align 8 dereferenceable(72) %this, ptr %key.coerce0, i64 %key.coerce1, ptr noundef nonnull align 8 dereferenceable(32) %val) #1 comdat align 2 {
entry:
  %this.addr.i = alloca ptr, align 8
  %Str.addr.i = alloca ptr, align 8
  %key = alloca %"class.llvh::StringRef", align 8
  %this.addr = alloca ptr, align 8
  %val.addr = alloca ptr, align 8
  %agg.tmp = alloca %"class.llvh::StringRef", align 8
  %agg.tmp2 = alloca %"class.llvh::StringRef", align 8
  %0 = getelementptr inbounds { ptr, i64 }, ptr %key, i32 0, i32 0
  store ptr %key.coerce0, ptr %0, align 8
  %1 = getelementptr inbounds { ptr, i64 }, ptr %key, i32 0, i32 1
  store i64 %key.coerce1, ptr %1, align 8
  store ptr %this, ptr %this.addr, align 8
  store ptr %val, ptr %val.addr, align 8
  %this1 = load ptr, ptr %this.addr, align 8
  call void @llvm.memcpy.p0.p0.i64(ptr align 8 %agg.tmp, ptr align 8 %key, i64 16, i1 false)
  %2 = getelementptr inbounds { ptr, i64 }, ptr %agg.tmp, i32 0, i32 0
  %3 = load ptr, ptr %2, align 8
  %4 = getelementptr inbounds { ptr, i64 }, ptr %agg.tmp, i32 0, i32 1
  %5 = load i64, ptr %4, align 8
  call void @_ZN6hermes11JSONEmitter7emitKeyEN4llvh9StringRefE(ptr noundef nonnull align 8 dereferenceable(72) %this1, ptr %3, i64 %5)
  %6 = load ptr, ptr %val.addr, align 8
  store ptr %agg.tmp2, ptr %this.addr.i, align 8
  store ptr %6, ptr %Str.addr.i, align 8
  %this1.i = load ptr, ptr %this.addr.i, align 8
  %7 = load ptr, ptr %Str.addr.i, align 8
  %call.i = call noundef ptr @_ZNKSt7__cxx1112basic_stringIcSt11char_traitsIcESaIcEE4dataEv(ptr noundef nonnull align 8 dereferenceable(32) %7) #13
  store ptr %call.i, ptr %this1.i, align 8
  %Length.i = getelementptr inbounds %"class.llvh::StringRef", ptr %this1.i, i32 0, i32 1
  %8 = load ptr, ptr %Str.addr.i, align 8
  %call2.i = call noundef i64 @_ZNKSt7__cxx1112basic_stringIcSt11char_traitsIcESaIcEE6lengthEv(ptr noundef nonnull align 8 dereferenceable(32) %8) #13
  store i64 %call2.i, ptr %Length.i, align 8
  %9 = getelementptr inbounds { ptr, i64 }, ptr %agg.tmp2, i32 0, i32 0
  %10 = load ptr, ptr %9, align 8
  %11 = getelementptr inbounds { ptr, i64 }, ptr %agg.tmp2, i32 0, i32 1
  %12 = load i64, ptr %11, align 8
  call void @_ZN6hermes11JSONEmitter9emitValueEN4llvh9StringRefE(ptr noundef nonnull align 8 dereferenceable(72) %this1, ptr %10, i64 %12)
  ret void
}

; Function Attrs: mustprogress uwtable
define linkonce_odr hidden void @_ZN6hermes11JSONEmitter12emitKeyValueImEEvN4llvh9StringRefERKT_(ptr noundef nonnull align 8 dereferenceable(72) %this, ptr %key.coerce0, i64 %key.coerce1, ptr noundef nonnull align 8 dereferenceable(8) %val) #1 comdat align 2 {
entry:
  %key = alloca %"class.llvh::StringRef", align 8
  %this.addr = alloca ptr, align 8
  %val.addr = alloca ptr, align 8
  %agg.tmp = alloca %"class.llvh::StringRef", align 8
  %0 = getelementptr inbounds { ptr, i64 }, ptr %key, i32 0, i32 0
  store ptr %key.coerce0, ptr %0, align 8
  %1 = getelementptr inbounds { ptr, i64 }, ptr %key, i32 0, i32 1
  store i64 %key.coerce1, ptr %1, align 8
  store ptr %this, ptr %this.addr, align 8
  store ptr %val, ptr %val.addr, align 8
  %this1 = load ptr, ptr %this.addr, align 8
  call void @llvm.memcpy.p0.p0.i64(ptr align 8 %agg.tmp, ptr align 8 %key, i64 16, i1 false)
  %2 = getelementptr inbounds { ptr, i64 }, ptr %agg.tmp, i32 0, i32 0
  %3 = load ptr, ptr %2, align 8
  %4 = getelementptr inbounds { ptr, i64 }, ptr %agg.tmp, i32 0, i32 1
  %5 = load i64, ptr %4, align 8
  call void @_ZN6hermes11JSONEmitter7emitKeyEN4llvh9StringRefE(ptr noundef nonnull align 8 dereferenceable(72) %this1, ptr %3, i64 %5)
  %6 = load ptr, ptr %val.addr, align 8
  %7 = load i64, ptr %6, align 8
  call void @_ZN6hermes11JSONEmitter9emitValueEm(ptr noundef nonnull align 8 dereferenceable(72) %this1, i64 noundef %7)
  ret void
}

; Function Attrs: mustprogress uwtable
define hidden void @_ZNK8facebook6hermes7tracing10SynthTrace22CreatePropNameIDRecord14toJSONInternalERN6hermes11JSONEmitterE(ptr noundef nonnull align 8 dereferenceable(76) %this, ptr noundef nonnull align 8 dereferenceable(72) %json) unnamed_addr #1 align 2 personality ptr @__gxx_personality_v0 {
entry:
  %this.addr.i45 = alloca ptr, align 8
  %data.addr.i = alloca ptr, align 8
  %length.addr.i = alloca i64, align 8
  %this.addr.i35 = alloca ptr, align 8
  %Str.addr.i36 = alloca ptr, align 8
  %this.addr.i25 = alloca ptr, align 8
  %Str.addr.i26 = alloca ptr, align 8
  %this.addr.i15 = alloca ptr, align 8
  %Str.addr.i16 = alloca ptr, align 8
  %this.addr.i = alloca ptr, align 8
  %Str.addr.i = alloca ptr, align 8
  %this.addr = alloca ptr, align 8
  %json.addr = alloca ptr, align 8
  %agg.tmp = alloca %"class.llvh::StringRef", align 8
  %agg.tmp2 = alloca %"class.llvh::StringRef", align 8
  %ref.tmp = alloca %"class.std::__cxx11::basic_string", align 8
  %agg.tmp3 = alloca %"class.facebook::hermes::tracing::SynthTrace::TraceValue", align 8
  %exn.slot = alloca ptr, align 8
  %ehselector.slot = alloca i32, align 4
  %agg.tmp4 = alloca %"class.llvh::StringRef", align 8
  %ref.tmp5 = alloca %"class.std::__cxx11::basic_string", align 8
  %agg.tmp10 = alloca %"class.llvh::StringRef", align 8
  %ref.tmp11 = alloca %"class.llvh::StringRef", align 8
  store ptr %this, ptr %this.addr, align 8
  store ptr %json, ptr %json.addr, align 8
  %this1 = load ptr, ptr %this.addr, align 8
  %0 = load ptr, ptr %json.addr, align 8
  call void @_ZNK8facebook6hermes7tracing10SynthTrace6Record14toJSONInternalERN6hermes11JSONEmitterE(ptr noundef nonnull align 8 dereferenceable(16) %this1, ptr noundef nonnull align 8 dereferenceable(72) %0)
  %1 = load ptr, ptr %json.addr, align 8
  store ptr %agg.tmp, ptr %this.addr.i, align 8
  store ptr @.str.53, ptr %Str.addr.i, align 8
  %this1.i = load ptr, ptr %this.addr.i, align 8
  %2 = load ptr, ptr %Str.addr.i, align 8
  store ptr %2, ptr %this1.i, align 8
  %Length.i = getelementptr inbounds %"class.llvh::StringRef", ptr %this1.i, i32 0, i32 1
  %3 = load ptr, ptr %Str.addr.i, align 8
  %tobool.i = icmp ne ptr %3, null
  br i1 %tobool.i, label %cond.true.i, label %cond.false.i

cond.true.i:                                      ; preds = %entry
  %4 = load ptr, ptr %Str.addr.i, align 8
  %call.i = call i64 @strlen(ptr noundef %4) #4
  br label %_ZN4llvh9StringRefC2EPKc.exit

cond.false.i:                                     ; preds = %entry
  br label %_ZN4llvh9StringRefC2EPKc.exit

_ZN4llvh9StringRefC2EPKc.exit:                    ; preds = %cond.false.i, %cond.true.i
  %cond.i = phi i64 [ %call.i, %cond.true.i ], [ 0, %cond.false.i ]
  store i64 %cond.i, ptr %Length.i, align 8
  %propNameID_ = getelementptr inbounds %"struct.facebook::hermes::tracing::SynthTrace::CreatePropNameIDRecord", ptr %this1, i32 0, i32 1
  %5 = getelementptr inbounds { ptr, i64 }, ptr %agg.tmp, i32 0, i32 0
  %6 = load ptr, ptr %5, align 8
  %7 = getelementptr inbounds { ptr, i64 }, ptr %agg.tmp, i32 0, i32 1
  %8 = load i64, ptr %7, align 8
  call void @_ZN6hermes11JSONEmitter12emitKeyValueImEEvN4llvh9StringRefERKT_(ptr noundef nonnull align 8 dereferenceable(72) %1, ptr %6, i64 %8, ptr noundef nonnull align 8 dereferenceable(8) %propNameID_)
  %valueType_ = getelementptr inbounds %"struct.facebook::hermes::tracing::SynthTrace::CreatePropNameIDRecord", ptr %this1, i32 0, i32 4
  %9 = load i32, ptr %valueType_, align 8
  %cmp = icmp eq i32 %9, 2
  br i1 %cmp, label %if.then, label %if.else

if.then:                                          ; preds = %_ZN4llvh9StringRefC2EPKc.exit
  %10 = load ptr, ptr %json.addr, align 8
  store ptr %agg.tmp2, ptr %this.addr.i15, align 8
  store ptr @.str.61, ptr %Str.addr.i16, align 8
  %this1.i17 = load ptr, ptr %this.addr.i15, align 8
  %11 = load ptr, ptr %Str.addr.i16, align 8
  store ptr %11, ptr %this1.i17, align 8
  %Length.i18 = getelementptr inbounds %"class.llvh::StringRef", ptr %this1.i17, i32 0, i32 1
  %12 = load ptr, ptr %Str.addr.i16, align 8
  %tobool.i19 = icmp ne ptr %12, null
  br i1 %tobool.i19, label %cond.true.i22, label %cond.false.i20

cond.true.i22:                                    ; preds = %if.then
  %13 = load ptr, ptr %Str.addr.i16, align 8
  %call.i23 = call i64 @strlen(ptr noundef %13) #4
  br label %_ZN4llvh9StringRefC2EPKc.exit24

cond.false.i20:                                   ; preds = %if.then
  br label %_ZN4llvh9StringRefC2EPKc.exit24

_ZN4llvh9StringRefC2EPKc.exit24:                  ; preds = %cond.false.i20, %cond.true.i22
  %cond.i21 = phi i64 [ %call.i23, %cond.true.i22 ], [ 0, %cond.false.i20 ]
  store i64 %cond.i21, ptr %Length.i18, align 8
  %traceValue_ = getelementptr inbounds %"struct.facebook::hermes::tracing::SynthTrace::CreatePropNameIDRecord", ptr %this1, i32 0, i32 3
  call void @llvm.memcpy.p0.p0.i64(ptr align 8 %agg.tmp3, ptr align 8 %traceValue_, i64 16, i1 false)
  %14 = getelementptr inbounds { i32, i64 }, ptr %agg.tmp3, i32 0, i32 0
  %15 = load i32, ptr %14, align 8
  %16 = getelementptr inbounds { i32, i64 }, ptr %agg.tmp3, i32 0, i32 1
  %17 = load i64, ptr %16, align 8
  call void @_ZN8facebook6hermes7tracing10SynthTrace6encodeB5cxx11ENS2_10TraceValueE(ptr sret(%"class.std::__cxx11::basic_string") align 8 %ref.tmp, i32 %15, i64 %17)
  %18 = getelementptr inbounds { ptr, i64 }, ptr %agg.tmp2, i32 0, i32 0
  %19 = load ptr, ptr %18, align 8
  %20 = getelementptr inbounds { ptr, i64 }, ptr %agg.tmp2, i32 0, i32 1
  %21 = load i64, ptr %20, align 8
  invoke void @_ZN6hermes11JSONEmitter12emitKeyValueINSt7__cxx1112basic_stringIcSt11char_traitsIcESaIcEEEEEvN4llvh9StringRefERKT_(ptr noundef nonnull align 8 dereferenceable(72) %10, ptr %19, i64 %21, ptr noundef nonnull align 8 dereferenceable(32) %ref.tmp)
          to label %invoke.cont unwind label %lpad

invoke.cont:                                      ; preds = %_ZN4llvh9StringRefC2EPKc.exit24
  call void @_ZNSt7__cxx1112basic_stringIcSt11char_traitsIcESaIcEED1Ev(ptr noundef nonnull align 8 dereferenceable(32) %ref.tmp) #13
  br label %if.end

lpad:                                             ; preds = %_ZN4llvh9StringRefC2EPKc.exit24
  %22 = landingpad { ptr, i32 }
          cleanup
  %23 = extractvalue { ptr, i32 } %22, 0
  store ptr %23, ptr %exn.slot, align 8
  %24 = extractvalue { ptr, i32 } %22, 1
  store i32 %24, ptr %ehselector.slot, align 4
  call void @_ZNSt7__cxx1112basic_stringIcSt11char_traitsIcESaIcEED1Ev(ptr noundef nonnull align 8 dereferenceable(32) %ref.tmp) #13
  br label %eh.resume

if.else:                                          ; preds = %_ZN4llvh9StringRefC2EPKc.exit
  %25 = load ptr, ptr %json.addr, align 8
  store ptr %agg.tmp4, ptr %this.addr.i25, align 8
  store ptr @.str.59, ptr %Str.addr.i26, align 8
  %this1.i27 = load ptr, ptr %this.addr.i25, align 8
  %26 = load ptr, ptr %Str.addr.i26, align 8
  store ptr %26, ptr %this1.i27, align 8
  %Length.i28 = getelementptr inbounds %"class.llvh::StringRef", ptr %this1.i27, i32 0, i32 1
  %27 = load ptr, ptr %Str.addr.i26, align 8
  %tobool.i29 = icmp ne ptr %27, null
  br i1 %tobool.i29, label %cond.true.i32, label %cond.false.i30

cond.true.i32:                                    ; preds = %if.else
  %28 = load ptr, ptr %Str.addr.i26, align 8
  %call.i33 = call i64 @strlen(ptr noundef %28) #4
  br label %_ZN4llvh9StringRefC2EPKc.exit34

cond.false.i30:                                   ; preds = %if.else
  br label %_ZN4llvh9StringRefC2EPKc.exit34

_ZN4llvh9StringRefC2EPKc.exit34:                  ; preds = %cond.false.i30, %cond.true.i32
  %cond.i31 = phi i64 [ %call.i33, %cond.true.i32 ], [ 0, %cond.false.i30 ]
  store i64 %cond.i31, ptr %Length.i28, align 8
  %valueType_6 = getelementptr inbounds %"struct.facebook::hermes::tracing::SynthTrace::CreatePropNameIDRecord", ptr %this1, i32 0, i32 4
  %29 = load i32, ptr %valueType_6, align 8
  %cmp7 = icmp eq i32 %29, 0
  call void @_ZN8facebook6hermes7tracingL12encodingNameB5cxx11Eb(ptr sret(%"class.std::__cxx11::basic_string") align 8 %ref.tmp5, i1 noundef zeroext %cmp7)
  %30 = getelementptr inbounds { ptr, i64 }, ptr %agg.tmp4, i32 0, i32 0
  %31 = load ptr, ptr %30, align 8
  %32 = getelementptr inbounds { ptr, i64 }, ptr %agg.tmp4, i32 0, i32 1
  %33 = load i64, ptr %32, align 8
  invoke void @_ZN6hermes11JSONEmitter12emitKeyValueINSt7__cxx1112basic_stringIcSt11char_traitsIcESaIcEEEEEvN4llvh9StringRefERKT_(ptr noundef nonnull align 8 dereferenceable(72) %25, ptr %31, i64 %33, ptr noundef nonnull align 8 dereferenceable(32) %ref.tmp5)
          to label %invoke.cont9 unwind label %lpad8

invoke.cont9:                                     ; preds = %_ZN4llvh9StringRefC2EPKc.exit34
  call void @_ZNSt7__cxx1112basic_stringIcSt11char_traitsIcESaIcEED1Ev(ptr noundef nonnull align 8 dereferenceable(32) %ref.tmp5) #13
  %34 = load ptr, ptr %json.addr, align 8
  store ptr %agg.tmp10, ptr %this.addr.i35, align 8
  store ptr @.str.60, ptr %Str.addr.i36, align 8
  %this1.i37 = load ptr, ptr %this.addr.i35, align 8
  %35 = load ptr, ptr %Str.addr.i36, align 8
  store ptr %35, ptr %this1.i37, align 8
  %Length.i38 = getelementptr inbounds %"class.llvh::StringRef", ptr %this1.i37, i32 0, i32 1
  %36 = load ptr, ptr %Str.addr.i36, align 8
  %tobool.i39 = icmp ne ptr %36, null
  br i1 %tobool.i39, label %cond.true.i42, label %cond.false.i40

cond.true.i42:                                    ; preds = %invoke.cont9
  %37 = load ptr, ptr %Str.addr.i36, align 8
  %call.i43 = call i64 @strlen(ptr noundef %37) #4
  br label %_ZN4llvh9StringRefC2EPKc.exit44

cond.false.i40:                                   ; preds = %invoke.cont9
  br label %_ZN4llvh9StringRefC2EPKc.exit44

_ZN4llvh9StringRefC2EPKc.exit44:                  ; preds = %cond.false.i40, %cond.true.i42
  %cond.i41 = phi i64 [ %call.i43, %cond.true.i42 ], [ 0, %cond.false.i40 ]
  store i64 %cond.i41, ptr %Length.i38, align 8
  %chars_ = getelementptr inbounds %"struct.facebook::hermes::tracing::SynthTrace::CreatePropNameIDRecord", ptr %this1, i32 0, i32 2
  %call = call noundef ptr @_ZNKSt7__cxx1112basic_stringIcSt11char_traitsIcESaIcEE4dataEv(ptr noundef nonnull align 8 dereferenceable(32) %chars_) #13
  %chars_12 = getelementptr inbounds %"struct.facebook::hermes::tracing::SynthTrace::CreatePropNameIDRecord", ptr %this1, i32 0, i32 2
  %call13 = call noundef i64 @_ZNKSt7__cxx1112basic_stringIcSt11char_traitsIcESaIcEE4sizeEv(ptr noundef nonnull align 8 dereferenceable(32) %chars_12) #13
  store ptr %ref.tmp11, ptr %this.addr.i45, align 8
  store ptr %call, ptr %data.addr.i, align 8
  store i64 %call13, ptr %length.addr.i, align 8
  %this1.i46 = load ptr, ptr %this.addr.i45, align 8
  %38 = load ptr, ptr %data.addr.i, align 8
  store ptr %38, ptr %this1.i46, align 8
  %Length.i47 = getelementptr inbounds %"class.llvh::StringRef", ptr %this1.i46, i32 0, i32 1
  %39 = load i64, ptr %length.addr.i, align 8
  store i64 %39, ptr %Length.i47, align 8
  %40 = getelementptr inbounds { ptr, i64 }, ptr %agg.tmp10, i32 0, i32 0
  %41 = load ptr, ptr %40, align 8
  %42 = getelementptr inbounds { ptr, i64 }, ptr %agg.tmp10, i32 0, i32 1
  %43 = load i64, ptr %42, align 8
  call void @_ZN6hermes11JSONEmitter12emitKeyValueIN4llvh9StringRefEEEvS3_RKT_(ptr noundef nonnull align 8 dereferenceable(72) %34, ptr %41, i64 %43, ptr noundef nonnull align 8 dereferenceable(16) %ref.tmp11)
  br label %if.end

lpad8:                                            ; preds = %_ZN4llvh9StringRefC2EPKc.exit34
  %44 = landingpad { ptr, i32 }
          cleanup
  %45 = extractvalue { ptr, i32 } %44, 0
  store ptr %45, ptr %exn.slot, align 8
  %46 = extractvalue { ptr, i32 } %44, 1
  store i32 %46, ptr %ehselector.slot, align 4
  call void @_ZNSt7__cxx1112basic_stringIcSt11char_traitsIcESaIcEED1Ev(ptr noundef nonnull align 8 dereferenceable(32) %ref.tmp5) #13
  br label %eh.resume

if.end:                                           ; preds = %_ZN4llvh9StringRefC2EPKc.exit44, %invoke.cont
  ret void

eh.resume:                                        ; preds = %lpad8, %lpad
  %exn = load ptr, ptr %exn.slot, align 8
  %sel = load i32, ptr %ehselector.slot, align 4
  %lpad.val = insertvalue { ptr, i32 } poison, ptr %exn, 0
  %lpad.val14 = insertvalue { ptr, i32 } %lpad.val, i32 %sel, 1
  resume { ptr, i32 } %lpad.val14
}