; Function Attrs: mustprogress uwtable
define hidden void @_ZNK8facebook6hermes7tracing10SynthTrace22CreatePropNameIDRecord14toJSONInternalERN6hermes11JSONEmitterE(ptr noundef nonnull align 8 dereferenceable(76) %this, ptr noundef nonnull align 8 dereferenceable(72) %json) unnamed_addr #1 align 2 personality ptr @__gxx_personality_v0 {
entry:
  %ref.tmp = alloca %"class.std::__cxx11::basic_string", align 8
  %ref.tmp5 = alloca %"class.std::__cxx11::basic_string", align 8
  tail call void @_ZNK8facebook6hermes7tracing10SynthTrace6Record14toJSONInternalERN6hermes11JSONEmitterE(ptr noundef nonnull align 8 dereferenceable(16) %this, ptr noundef nonnull align 8 dereferenceable(72) %json)
  %propNameID_ = getelementptr inbounds i8, ptr %this, i64 16
  tail call void @_ZN6hermes11JSONEmitter7emitKeyEN4llvh9StringRefE(ptr noundef nonnull align 8 dereferenceable(72) %json, ptr nonnull @.str.53, i64 5)
  %0 = load i64, ptr %propNameID_, align 8
  tail call void @_ZN6hermes11JSONEmitter9emitValueEm(ptr noundef nonnull align 8 dereferenceable(72) %json, i64 noundef %0)
  %valueType_ = getelementptr inbounds i8, ptr %this, i64 72
  %1 = load i32, ptr %valueType_, align 8
  %cmp = icmp eq i32 %1, 2
  br i1 %cmp, label %_ZN4llvh9StringRefC2EPKc.exit24, label %_ZN4llvh9StringRefC2EPKc.exit34

_ZN4llvh9StringRefC2EPKc.exit24:                  ; preds = %entry
  %traceValue_ = getelementptr inbounds i8, ptr %this, i64 56
  %agg.tmp3.sroa.0.0.copyload = load i32, ptr %traceValue_, align 8
  %agg.tmp3.sroa.21.0.traceValue_.sroa_idx = getelementptr inbounds i8, ptr %this, i64 64
  %agg.tmp3.sroa.21.0.copyload = load i64, ptr %agg.tmp3.sroa.21.0.traceValue_.sroa_idx, align 8
  call void @_ZN8facebook6hermes7tracing10SynthTrace6encodeB5cxx11ENS2_10TraceValueE(ptr nonnull sret(%"class.std::__cxx11::basic_string") align 8 %ref.tmp, i32 %agg.tmp3.sroa.0.0.copyload, i64 %agg.tmp3.sroa.21.0.copyload)
  invoke void @_ZN6hermes11JSONEmitter7emitKeyEN4llvh9StringRefE(ptr noundef nonnull align 8 dereferenceable(72) %json, ptr nonnull @.str.61, i64 5)
          to label %.noexc unwind label %lpad

.noexc:                                           ; preds = %_ZN4llvh9StringRefC2EPKc.exit24
  %call.i.i = call noundef ptr @_ZNKSt7__cxx1112basic_stringIcSt11char_traitsIcESaIcEE4dataEv(ptr noundef nonnull align 8 dereferenceable(32) %ref.tmp) #23
  %call2.i.i = call noundef i64 @_ZNKSt7__cxx1112basic_stringIcSt11char_traitsIcESaIcEE6lengthEv(ptr noundef nonnull align 8 dereferenceable(32) %ref.tmp) #23
  invoke void @_ZN6hermes11JSONEmitter9emitValueEN4llvh9StringRefE(ptr noundef nonnull align 8 dereferenceable(72) %json, ptr %call.i.i, i64 %call2.i.i)
          to label %invoke.cont unwind label %lpad

invoke.cont:                                      ; preds = %.noexc
  call void @_ZNSt7__cxx1112basic_stringIcSt11char_traitsIcESaIcEED1Ev(ptr noundef nonnull align 8 dereferenceable(32) %ref.tmp) #23
  br label %if.end

lpad:                                             ; preds = %.noexc, %_ZN4llvh9StringRefC2EPKc.exit24
  %2 = landingpad { ptr, i32 }
          cleanup
  br label %eh.resume

_ZN4llvh9StringRefC2EPKc.exit34:                  ; preds = %entry
  %cmp7 = icmp eq i32 %1, 0
  call fastcc void @_ZN8facebook6hermes7tracingL12encodingNameB5cxx11Eb(ptr noalias nonnull align 8 %ref.tmp5, i1 noundef zeroext %cmp7)
  invoke void @_ZN6hermes11JSONEmitter7emitKeyEN4llvh9StringRefE(ptr noundef nonnull align 8 dereferenceable(72) %json, ptr nonnull @.str.59, i64 8)
          to label %.noexc18 unwind label %lpad8

.noexc18:                                         ; preds = %_ZN4llvh9StringRefC2EPKc.exit34
  %call.i.i16 = call noundef ptr @_ZNKSt7__cxx1112basic_stringIcSt11char_traitsIcESaIcEE4dataEv(ptr noundef nonnull align 8 dereferenceable(32) %ref.tmp5) #23
  %call2.i.i17 = call noundef i64 @_ZNKSt7__cxx1112basic_stringIcSt11char_traitsIcESaIcEE6lengthEv(ptr noundef nonnull align 8 dereferenceable(32) %ref.tmp5) #23
  invoke void @_ZN6hermes11JSONEmitter9emitValueEN4llvh9StringRefE(ptr noundef nonnull align 8 dereferenceable(72) %json, ptr %call.i.i16, i64 %call2.i.i17)
          to label %invoke.cont9 unwind label %lpad8

invoke.cont9:                                     ; preds = %.noexc18
  call void @_ZNSt7__cxx1112basic_stringIcSt11char_traitsIcESaIcEED1Ev(ptr noundef nonnull align 8 dereferenceable(32) %ref.tmp5) #23
  %chars_ = getelementptr inbounds i8, ptr %this, i64 24
  %call = call noundef ptr @_ZNKSt7__cxx1112basic_stringIcSt11char_traitsIcESaIcEE4dataEv(ptr noundef nonnull align 8 dereferenceable(32) %chars_) #23
  %call13 = call noundef i64 @_ZNKSt7__cxx1112basic_stringIcSt11char_traitsIcESaIcEE4sizeEv(ptr noundef nonnull align 8 dereferenceable(32) %chars_) #23
  call void @_ZN6hermes11JSONEmitter7emitKeyEN4llvh9StringRefE(ptr noundef nonnull align 8 dereferenceable(72) %json, ptr nonnull @.str.60, i64 5)
  call void @_ZN6hermes11JSONEmitter9emitValueEN4llvh9StringRefE(ptr noundef nonnull align 8 dereferenceable(72) %json, ptr %call, i64 %call13)
  br label %if.end

lpad8:                                            ; preds = %.noexc18, %_ZN4llvh9StringRefC2EPKc.exit34
  %3 = landingpad { ptr, i32 }
          cleanup
  br label %eh.resume

if.end:                                           ; preds = %invoke.cont9, %invoke.cont
  ret void

eh.resume:                                        ; preds = %lpad8, %lpad
  %ref.tmp5.sink = phi ptr [ %ref.tmp5, %lpad8 ], [ %ref.tmp, %lpad ]
  %.pn = phi { ptr, i32 } [ %3, %lpad8 ], [ %2, %lpad ]
  call void @_ZNSt7__cxx1112basic_stringIcSt11char_traitsIcESaIcEED1Ev(ptr noundef nonnull align 8 dereferenceable(32) %ref.tmp5.sink) #23
  resume { ptr, i32 } %.pn
}